; Function Attrs: mustprogress uwtable
define void @_ZN23LBMLBTRMTransportDialog36actionSourceNCFFramesCount_triggeredEb(ptr nocapture noundef nonnull readonly align 8 dereferenceable(96) %0, i1 noundef zeroext %1) local_unnamed_addr #0 align 2 {
  %3 = getelementptr inbounds i8, ptr %0, i64 40
  %4 = load ptr, ptr %3, align 8
  %5 = getelementptr inbounds i8, ptr %4, i64 224
  %6 = load ptr, ptr %5, align 8
  %7 = xor i1 %1, true
  tail call void @_ZN9QTreeView15setColumnHiddenEib(ptr noundef nonnull align 8 dereferenceable(40) %6, i32 noundef 14, i1 noundef zeroext %7)
  ret void
}